; ModuleID = '24/1313.c'
source_filename = "24/1313.c"
target datalayout = "e-m:e-p270:32:32-p271:32:32-p272:64:64-i64:64-f80:128-n8:16:32:64-S128"
target triple = "x86_64-pc-linux-gnu"

@.str = private unnamed_addr constant [3 x i8] c"%s\00", align 1
@.str.1 = private unnamed_addr constant [4 x i8] c"%s\0A\00", align 1

; Function Attrs: noinline nounwind uwtable
define dso_local i32 @main() #0 {
  %1 = alloca i32, align 4
  %2 = alloca i32, align 4
  %3 = alloca i32, align 4
  %4 = alloca i32, align 4
  %5 = alloca i32, align 4
  %6 = alloca i32, align 4
  %7 = alloca i32, align 4
  %8 = alloca i32, align 4
  %9 = alloca [20 x i8], align 16
  %10 = alloca [20 x i8], align 16
  %11 = alloca [20 x i8], align 16
  store i32 0, i32* %1, align 4
  %12 = call i32 (i8*, ...) @__isoc99_scanf(i8* getelementptr inbounds ([3 x i8], [3 x i8]* @.str, i64 0, i64 0), [20 x i8]* %11)
  %13 = getelementptr inbounds [20 x i8], [20 x i8]* %11, i64 0, i64 0
  %14 = call i64 @strlen(i8* %13) #4
  %15 = trunc i64 %14 to i32
  store i32 %15, i32* %6, align 4
  %16 = load i32, i32* %6, align 4
  store i32 %16, i32* %8, align 4
  store i32 %16, i32* %7, align 4
  %17 = getelementptr inbounds [20 x i8], [20 x i8]* %9, i64 0, i64 0
  %18 = getelementptr inbounds [20 x i8], [20 x i8]* %11, i64 0, i64 0
  %19 = call i8* @strcpy(i8* %17, i8* %18) #5
  %20 = getelementptr inbounds [20 x i8], [20 x i8]* %10, i64 0, i64 0
  %21 = getelementptr inbounds [20 x i8], [20 x i8]* %11, i64 0, i64 0
  %22 = call i8* @strcpy(i8* %20, i8* %21) #5
  br label %23

23:                                               ; preds = %53, %0
  %24 = call i32 @getchar()
  %25 = icmp ne i32 %24, 10
  br i1 %25, label %26, label %54

26:                                               ; preds = %23
  %27 = call i32 (i8*, ...) @__isoc99_scanf(i8* getelementptr inbounds ([3 x i8], [3 x i8]* @.str, i64 0, i64 0), [20 x i8]* %11)
  %28 = getelementptr inbounds [20 x i8], [20 x i8]* %11, i64 0, i64 0
  %29 = call i64 @strlen(i8* %28) #4
  %30 = load i32, i32* %7, align 4
  %31 = zext i32 %30 to i64
  %32 = icmp ugt i64 %29, %31
  br i1 %32, label %33, label %40

33:                                               ; preds = %26
  %34 = getelementptr inbounds [20 x i8], [20 x i8]* %9, i64 0, i64 0
  %35 = getelementptr inbounds [20 x i8], [20 x i8]* %11, i64 0, i64 0
  %36 = call i8* @strcpy(i8* %34, i8* %35) #5
  %37 = getelementptr inbounds [20 x i8], [20 x i8]* %11, i64 0, i64 0
  %38 = call i64 @strlen(i8* %37) #4
  %39 = trunc i64 %38 to i32
  store i32 %39, i32* %7, align 4
  br label %40

40:                                               ; preds = %33, %26
  %41 = getelementptr inbounds [20 x i8], [20 x i8]* %11, i64 0, i64 0
  %42 = call i64 @strlen(i8* %41) #4
  %43 = load i32, i32* %8, align 4
  %44 = zext i32 %43 to i64
  %45 = icmp ult i64 %42, %44
  br i1 %45, label %46, label %53

46:                                               ; preds = %40
  %47 = getelementptr inbounds [20 x i8], [20 x i8]* %10, i64 0, i64 0
  %48 = getelementptr inbounds [20 x i8], [20 x i8]* %11, i64 0, i64 0
  %49 = call i8* @strcpy(i8* %47, i8* %48) #5
  %50 = getelementptr inbounds [20 x i8], [20 x i8]* %11, i64 0, i64 0
  %51 = call i64 @strlen(i8* %50) #4
  %52 = trunc i64 %51 to i32
  store i32 %52, i32* %8, align 4
  br label %53

53:                                               ; preds = %46, %40
  br label %23

54:                                               ; preds = %23
  %55 = getelementptr inbounds [20 x i8], [20 x i8]* %9, i64 0, i64 0
  %56 = call i32 (i8*, ...) @printf(i8* getelementptr inbounds ([4 x i8], [4 x i8]* @.str.1, i64 0, i64 0), i8* %55)
  %57 = getelementptr inbounds [20 x i8], [20 x i8]* %10, i64 0, i64 0
  %58 = call i32 (i8*, ...) @printf(i8* getelementptr inbounds ([4 x i8], [4 x i8]* @.str.1, i64 0, i64 0), i8* %57)
  %59 = load i32, i32* %1, align 4
  ret i32 %59
}

declare dso_local i32 @__isoc99_scanf(i8*, ...) #1

; Function Attrs: nounwind readonly
declare dso_local i64 @strlen(i8*) #2

; Function Attrs: nounwind
declare dso_local i8* @strcpy(i8*, i8*) #3

declare dso_local i32 @getchar() #1

declare dso_local i32 @printf(i8*, ...) #1


!llvm.module.flags = !{!0}
!llvm.ident = !{!1}

!0 = !{i32 1, !"wchar_size", i32 4}
!1 = !{!"clang version 10.0.0-4ubuntu1 "}
